target datalayout = "e-m:e-p270:32:32-p271:32:32-p272:64:64-i64:64-i128:128-f80:128-n8:16:32:64-S128"
target triple = "x86_64-pc-linux-gnu"

%struct.Cache = type { ptr, i32, i32, i32, i32, i64, i64, i64, i64 }
%struct.CacheSet = type { ptr, ptr, i64, ptr }

@cores = internal global i32 0, align 4
@metadata_init = global ptr null, align 8
@.str.24 = private unnamed_addr constant [32 x i8] c"../qemu/contrib/plugins/cache.c\00", align 1
@__func__.cache_init = private unnamed_addr constant [11 x i8] c"cache_init\00", align 1
@.str.25 = private unnamed_addr constant [45 x i8] c"!bad_cache_params(blksize, assoc, cachesize)\00", align 1
@__func__.pow_of_two = private unnamed_addr constant [11 x i8] c"pow_of_two\00", align 1
@.str.26 = private unnamed_addr constant [23 x i8] c"(num & (num - 1)) == 0\00", align 1

; Function Attrs: nounwind sspstrong uwtable
define internal i32 @pow_of_two(i32 noundef %0) #0 {
  %2 = alloca i32, align 4
  %3 = alloca i32, align 4
  %4 = alloca i32, align 4
  %5 = alloca i32, align 4
  store i32 %0, ptr %2, align 4
  br label %6

6:                                                ; preds = %1
  call void @llvm.lifetime.start.p0(i64 4, ptr %3) #10
  store i32 0, ptr %3, align 4, !annotation !3
  %7 = load i32, ptr %2, align 4
  %8 = load i32, ptr %2, align 4
  %9 = sub i32 %8, 1
  %10 = and i32 %7, %9
  %11 = icmp eq i32 %10, 0
  br i1 %11, label %12, label %13

12:                                               ; preds = %6
  store i32 1, ptr %3, align 4
  br label %14

13:                                               ; preds = %6
  store i32 0, ptr %3, align 4
  br label %14

14:                                               ; preds = %13, %12
  %15 = load i32, ptr %3, align 4
  store i32 %15, ptr %4, align 4
  call void @llvm.lifetime.end.p0(i64 4, ptr %3) #10
  %16 = load i32, ptr %4, align 4
  %17 = sext i32 %16 to i64
  %18 = call i64 @llvm.expect.i64(i64 %17, i64 1)
  %19 = icmp ne i64 %18, 0
  br i1 %19, label %20, label %21

20:                                               ; preds = %14
  br label %22

21:                                               ; preds = %14
  call void @g_assertion_message_expr(ptr noundef null, ptr noundef @.str.24, i32 noundef 118, ptr noundef @__func__.pow_of_two, ptr noundef @.str.26) #13
  unreachable

22:                                               ; preds = %20
  br label %23

23:                                               ; preds = %22
  call void @llvm.lifetime.start.p0(i64 4, ptr %5) #10
  store i32 0, ptr %5, align 4
  br label %24

24:                                               ; preds = %28, %23
  %25 = load i32, ptr %2, align 4
  %26 = sdiv i32 %25, 2
  store i32 %26, ptr %2, align 4
  %27 = icmp ne i32 %26, 0
  br i1 %27, label %28, label %31

28:                                               ; preds = %24
  %29 = load i32, ptr %5, align 4
  %30 = add i32 %29, 1
  store i32 %30, ptr %5, align 4
  br label %24, !llvm.loop !15

31:                                               ; preds = %24
  %32 = load i32, ptr %5, align 4
  call void @llvm.lifetime.end.p0(i64 4, ptr %5) #10
  ret i32 %32
}

; Function Attrs: nounwind sspstrong uwtable
define internal ptr @cache_init(i32 noundef %0, i32 noundef %1, i32 noundef %2) #0 {
  %4 = alloca i32, align 4
  %5 = alloca i32, align 4
  %6 = alloca i32, align 4
  %7 = alloca ptr, align 8
  %8 = alloca i32, align 4
  %9 = alloca i64, align 8
  %10 = alloca i32, align 4
  %11 = alloca i32, align 4
  %12 = alloca i64, align 8
  %13 = alloca i64, align 8
  %14 = alloca ptr, align 8
  %15 = alloca ptr, align 8
  %16 = alloca i64, align 8
  %17 = alloca i64, align 8
  %18 = alloca ptr, align 8
  %19 = alloca ptr, align 8
  %20 = alloca i64, align 8
  %21 = alloca i64, align 8
  %22 = alloca ptr, align 8
  %23 = alloca ptr, align 8
  store i32 %0, ptr %4, align 4
  store i32 %1, ptr %5, align 4
  store i32 %2, ptr %6, align 4
  call void @llvm.lifetime.start.p0(i64 8, ptr %7) #10
  store ptr null, ptr %7, align 8, !annotation !3
  call void @llvm.lifetime.start.p0(i64 4, ptr %8) #10
  store i32 0, ptr %8, align 4, !annotation !3
  call void @llvm.lifetime.start.p0(i64 8, ptr %9) #10
  store i64 0, ptr %9, align 8, !annotation !3
  br label %24

24:                                               ; preds = %3
  call void @llvm.lifetime.start.p0(i64 4, ptr %10) #10
  store i32 0, ptr %10, align 4, !annotation !3
  %25 = load i32, ptr %4, align 4
  %26 = load i32, ptr %5, align 4
  %27 = load i32, ptr %6, align 4
  %28 = call zeroext i1 @bad_cache_params(i32 noundef %25, i32 noundef %26, i32 noundef %27)
  br i1 %28, label %30, label %29

29:                                               ; preds = %24
  store i32 1, ptr %10, align 4
  br label %31

30:                                               ; preds = %24
  store i32 0, ptr %10, align 4
  br label %31

31:                                               ; preds = %30, %29
  %32 = load i32, ptr %10, align 4
  store i32 %32, ptr %11, align 4
  call void @llvm.lifetime.end.p0(i64 4, ptr %10) #10
  %33 = load i32, ptr %11, align 4
  %34 = sext i32 %33 to i64
  %35 = call i64 @llvm.expect.i64(i64 %34, i64 1)
  %36 = icmp ne i64 %35, 0
  br i1 %36, label %37, label %38

37:                                               ; preds = %31
  br label %39

38:                                               ; preds = %31
  call void @g_assertion_message_expr(ptr noundef null, ptr noundef @.str.24, i32 noundef 259, ptr noundef @__func__.cache_init, ptr noundef @.str.25) #13
  unreachable

39:                                               ; preds = %37
  br label %40

40:                                               ; preds = %39
  br label %41

41:                                               ; preds = %40
  call void @llvm.lifetime.start.p0(i64 8, ptr %12) #10
  store i64 1, ptr %12, align 8
  call void @llvm.lifetime.start.p0(i64 8, ptr %13) #10
  store i64 56, ptr %13, align 8
  call void @llvm.lifetime.start.p0(i64 8, ptr %14) #10
  store ptr null, ptr %14, align 8, !annotation !3
  %42 = load i64, ptr %13, align 8
  %43 = icmp eq i64 %42, 1
  br i1 %43, label %44, label %47

44:                                               ; preds = %41
  %45 = load i64, ptr %12, align 8
  %46 = call noalias ptr @g_malloc(i64 noundef %45) #11
  store ptr %46, ptr %14, align 8
  br label %68

47:                                               ; preds = %41
  %48 = load i64, ptr %12, align 8
  %49 = call i1 @llvm.is.constant.i64(i64 %48)
  br i1 %49, label %50, label %63

50:                                               ; preds = %47
  %51 = load i64, ptr %13, align 8
  %52 = icmp eq i64 %51, 0
  br i1 %52, label %58, label %53

53:                                               ; preds = %50
  %54 = load i64, ptr %12, align 8
  %55 = load i64, ptr %13, align 8
  %56 = udiv i64 -1, %55
  %57 = icmp ule i64 %54, %56
  br i1 %57, label %58, label %63

58:                                               ; preds = %53, %50
  %59 = load i64, ptr %12, align 8
  %60 = load i64, ptr %13, align 8
  %61 = mul i64 %59, %60
  %62 = call noalias ptr @g_malloc(i64 noundef %61) #11
  store ptr %62, ptr %14, align 8
  br label %67

63:                                               ; preds = %53, %47
  %64 = load i64, ptr %12, align 8
  %65 = load i64, ptr %13, align 8
  %66 = call noalias ptr @g_malloc_n(i64 noundef %64, i64 noundef %65) #12
  store ptr %66, ptr %14, align 8
  br label %67

67:                                               ; preds = %63, %58
  br label %68

68:                                               ; preds = %67, %44
  %69 = load ptr, ptr %14, align 8
  store ptr %69, ptr %15, align 8
  call void @llvm.lifetime.end.p0(i64 8, ptr %14) #10
  call void @llvm.lifetime.end.p0(i64 8, ptr %13) #10
  call void @llvm.lifetime.end.p0(i64 8, ptr %12) #10
  %70 = load ptr, ptr %15, align 8
  store ptr %70, ptr %7, align 8
  %71 = load i32, ptr %5, align 4
  %72 = load ptr, ptr %7, align 8
  %73 = getelementptr inbounds nuw %struct.Cache, ptr %72, i32 0, i32 3
  store i32 %71, ptr %73, align 8
  %74 = load i32, ptr %6, align 4
  %75 = load ptr, ptr %7, align 8
  %76 = getelementptr inbounds nuw %struct.Cache, ptr %75, i32 0, i32 2
  store i32 %74, ptr %76, align 4
  %77 = load i32, ptr %6, align 4
  %78 = load i32, ptr %4, align 4
  %79 = load i32, ptr %5, align 4
  %80 = mul i32 %78, %79
  %81 = sdiv i32 %77, %80
  %82 = load ptr, ptr %7, align 8
  %83 = getelementptr inbounds nuw %struct.Cache, ptr %82, i32 0, i32 1
  store i32 %81, ptr %83, align 8
  call void @llvm.lifetime.start.p0(i64 8, ptr %16) #10
  %84 = load ptr, ptr %7, align 8
  %85 = getelementptr inbounds nuw %struct.Cache, ptr %84, i32 0, i32 1
  %86 = load i32, ptr %85, align 8
  %87 = sext i32 %86 to i64
  store i64 %87, ptr %16, align 8
  call void @llvm.lifetime.start.p0(i64 8, ptr %17) #10
  store i64 32, ptr %17, align 8
  call void @llvm.lifetime.start.p0(i64 8, ptr %18) #10
  store ptr null, ptr %18, align 8, !annotation !3
  %88 = load i64, ptr %17, align 8
  %89 = icmp eq i64 %88, 1
  br i1 %89, label %90, label %93

90:                                               ; preds = %68
  %91 = load i64, ptr %16, align 8
  %92 = call noalias ptr @g_malloc(i64 noundef %91) #11
  store ptr %92, ptr %18, align 8
  br label %114

93:                                               ; preds = %68
  %94 = load i64, ptr %16, align 8
  %95 = call i1 @llvm.is.constant.i64(i64 %94)
  br i1 %95, label %96, label %109

96:                                               ; preds = %93
  %97 = load i64, ptr %17, align 8
  %98 = icmp eq i64 %97, 0
  br i1 %98, label %104, label %99

99:                                               ; preds = %96
  %100 = load i64, ptr %16, align 8
  %101 = load i64, ptr %17, align 8
  %102 = udiv i64 -1, %101
  %103 = icmp ule i64 %100, %102
  br i1 %103, label %104, label %109

104:                                              ; preds = %99, %96
  %105 = load i64, ptr %16, align 8
  %106 = load i64, ptr %17, align 8
  %107 = mul i64 %105, %106
  %108 = call noalias ptr @g_malloc(i64 noundef %107) #11
  store ptr %108, ptr %18, align 8
  br label %113

109:                                              ; preds = %99, %93
  %110 = load i64, ptr %16, align 8
  %111 = load i64, ptr %17, align 8
  %112 = call noalias ptr @g_malloc_n(i64 noundef %110, i64 noundef %111) #12
  store ptr %112, ptr %18, align 8
  br label %113

113:                                              ; preds = %109, %104
  br label %114

114:                                              ; preds = %113, %90
  %115 = load ptr, ptr %18, align 8
  store ptr %115, ptr %19, align 8
  call void @llvm.lifetime.end.p0(i64 8, ptr %18) #10
  call void @llvm.lifetime.end.p0(i64 8, ptr %17) #10
  call void @llvm.lifetime.end.p0(i64 8, ptr %16) #10
  %116 = load ptr, ptr %19, align 8
  %117 = load ptr, ptr %7, align 8
  %118 = getelementptr inbounds nuw %struct.Cache, ptr %117, i32 0, i32 0
  store ptr %116, ptr %118, align 8
  %119 = load i32, ptr %4, align 4
  %120 = call i32 @pow_of_two(i32 noundef %119)
  %121 = load ptr, ptr %7, align 8
  %122 = getelementptr inbounds nuw %struct.Cache, ptr %121, i32 0, i32 4
  store i32 %120, ptr %122, align 4
  %123 = load ptr, ptr %7, align 8
  %124 = getelementptr inbounds nuw %struct.Cache, ptr %123, i32 0, i32 7
  store i64 0, ptr %124, align 8
  %125 = load ptr, ptr %7, align 8
  %126 = getelementptr inbounds nuw %struct.Cache, ptr %125, i32 0, i32 8
  store i64 0, ptr %126, align 8
  store i32 0, ptr %8, align 4
  br label %127

127:                                              ; preds = %172, %114
  %128 = load i32, ptr %8, align 4
  %129 = load ptr, ptr %7, align 8
  %130 = getelementptr inbounds nuw %struct.Cache, ptr %129, i32 0, i32 1
  %131 = load i32, ptr %130, align 8
  %132 = icmp slt i32 %128, %131
  br i1 %132, label %133, label %175

133:                                              ; preds = %127
  call void @llvm.lifetime.start.p0(i64 8, ptr %20) #10
  %134 = load i32, ptr %5, align 4
  %135 = sext i32 %134 to i64
  store i64 %135, ptr %20, align 8
  call void @llvm.lifetime.start.p0(i64 8, ptr %21) #10
  store i64 16, ptr %21, align 8
  call void @llvm.lifetime.start.p0(i64 8, ptr %22) #10
  store ptr null, ptr %22, align 8, !annotation !3
  %136 = load i64, ptr %21, align 8
  %137 = icmp eq i64 %136, 1
  br i1 %137, label %138, label %141

138:                                              ; preds = %133
  %139 = load i64, ptr %20, align 8
  %140 = call noalias ptr @g_malloc0(i64 noundef %139) #11
  store ptr %140, ptr %22, align 8
  br label %162

141:                                              ; preds = %133
  %142 = load i64, ptr %20, align 8
  %143 = call i1 @llvm.is.constant.i64(i64 %142)
  br i1 %143, label %144, label %157

144:                                              ; preds = %141
  %145 = load i64, ptr %21, align 8
  %146 = icmp eq i64 %145, 0
  br i1 %146, label %152, label %147

147:                                              ; preds = %144
  %148 = load i64, ptr %20, align 8
  %149 = load i64, ptr %21, align 8
  %150 = udiv i64 -1, %149
  %151 = icmp ule i64 %148, %150
  br i1 %151, label %152, label %157

152:                                              ; preds = %147, %144
  %153 = load i64, ptr %20, align 8
  %154 = load i64, ptr %21, align 8
  %155 = mul i64 %153, %154
  %156 = call noalias ptr @g_malloc0(i64 noundef %155) #11
  store ptr %156, ptr %22, align 8
  br label %161

157:                                              ; preds = %147, %141
  %158 = load i64, ptr %20, align 8
  %159 = load i64, ptr %21, align 8
  %160 = call noalias ptr @g_malloc0_n(i64 noundef %158, i64 noundef %159) #12
  store ptr %160, ptr %22, align 8
  br label %161

161:                                              ; preds = %157, %152
  br label %162

162:                                              ; preds = %161, %138
  %163 = load ptr, ptr %22, align 8
  store ptr %163, ptr %23, align 8
  call void @llvm.lifetime.end.p0(i64 8, ptr %22) #10
  call void @llvm.lifetime.end.p0(i64 8, ptr %21) #10
  call void @llvm.lifetime.end.p0(i64 8, ptr %20) #10
  %164 = load ptr, ptr %23, align 8
  %165 = load ptr, ptr %7, align 8
  %166 = getelementptr inbounds nuw %struct.Cache, ptr %165, i32 0, i32 0
  %167 = load ptr, ptr %166, align 8
  %168 = load i32, ptr %8, align 4
  %169 = sext i32 %168 to i64
  %170 = getelementptr inbounds %struct.CacheSet, ptr %167, i64 %169
  %171 = getelementptr inbounds nuw %struct.CacheSet, ptr %170, i32 0, i32 0
  store ptr %164, ptr %171, align 8
  br label %172

172:                                              ; preds = %162
  %173 = load i32, ptr %8, align 4
  %174 = add i32 %173, 1
  store i32 %174, ptr %8, align 4
  br label %127, !llvm.loop !14

175:                                              ; preds = %127
  %176 = load i32, ptr %4, align 4
  %177 = sub i32 %176, 1
  %178 = sext i32 %177 to i64
  store i64 %178, ptr %9, align 8
  %179 = load ptr, ptr %7, align 8
  %180 = getelementptr inbounds nuw %struct.Cache, ptr %179, i32 0, i32 1
  %181 = load i32, ptr %180, align 8
  %182 = sub i32 %181, 1
  %183 = load ptr, ptr %7, align 8
  %184 = getelementptr inbounds nuw %struct.Cache, ptr %183, i32 0, i32 4
  %185 = load i32, ptr %184, align 4
  %186 = shl i32 %182, %185
  %187 = sext i32 %186 to i64
  %188 = load ptr, ptr %7, align 8
  %189 = getelementptr inbounds nuw %struct.Cache, ptr %188, i32 0, i32 5
  store i64 %187, ptr %189, align 8
  %190 = load ptr, ptr %7, align 8
  %191 = getelementptr inbounds nuw %struct.Cache, ptr %190, i32 0, i32 5
  %192 = load i64, ptr %191, align 8
  %193 = load i64, ptr %9, align 8
  %194 = or i64 %192, %193
  %195 = xor i64 %194, -1
  %196 = load ptr, ptr %7, align 8
  %197 = getelementptr inbounds nuw %struct.Cache, ptr %196, i32 0, i32 6
  store i64 %195, ptr %197, align 8
  %198 = load ptr, ptr @metadata_init, align 8
  %199 = icmp ne ptr %198, null
  br i1 %199, label %200, label %203

200:                                              ; preds = %175
  %201 = load ptr, ptr @metadata_init, align 8
  %202 = load ptr, ptr %7, align 8
  call void %201(ptr noundef %202)
  br label %203

203:                                              ; preds = %200, %175
  %204 = load ptr, ptr %7, align 8
  call void @llvm.lifetime.end.p0(i64 8, ptr %9) #10
  call void @llvm.lifetime.end.p0(i64 4, ptr %8) #10
  call void @llvm.lifetime.end.p0(i64 8, ptr %7) #10
  ret ptr %204
}

; Function Attrs: nounwind sspstrong uwtable
define internal zeroext i1 @bad_cache_params(i32 noundef %0, i32 noundef %1, i32 noundef %2) #0 {
  %4 = alloca i32, align 4
  %5 = alloca i32, align 4
  %6 = alloca i32, align 4
  store i32 %0, ptr %4, align 4
  store i32 %1, ptr %5, align 4
  store i32 %2, ptr %6, align 4
  %7 = load i32, ptr %6, align 4
  %8 = load i32, ptr %4, align 4
  %9 = srem i32 %7, %8
  %10 = icmp ne i32 %9, 0
  br i1 %10, label %18, label %11

11:                                               ; preds = %3
  %12 = load i32, ptr %6, align 4
  %13 = load i32, ptr %4, align 4
  %14 = load i32, ptr %5, align 4
  %15 = mul i32 %13, %14
  %16 = srem i32 %12, %15
  %17 = icmp ne i32 %16, 0
  br label %18

18:                                               ; preds = %11, %3
  %19 = phi i1 [ true, %3 ], [ %17, %11 ]
  ret i1 %19
}

; Function Attrs: nounwind sspstrong uwtable
define internal ptr @caches_init(i32 noundef %0, i32 noundef %1, i32 noundef %2) #0 {
  %4 = alloca ptr, align 8
  %5 = alloca i32, align 4
  %6 = alloca i32, align 4
  %7 = alloca i32, align 4
  %8 = alloca ptr, align 8
  %9 = alloca i32, align 4
  %10 = alloca i32, align 4
  %11 = alloca i64, align 8
  %12 = alloca i64, align 8
  %13 = alloca ptr, align 8
  %14 = alloca ptr, align 8
  store i32 %0, ptr %5, align 4
  store i32 %1, ptr %6, align 4
  store i32 %2, ptr %7, align 4
  call void @llvm.lifetime.start.p0(i64 8, ptr %8) #10
  store ptr null, ptr %8, align 8, !annotation !3
  call void @llvm.lifetime.start.p0(i64 4, ptr %9) #10
  store i32 0, ptr %9, align 4, !annotation !3
  %15 = load i32, ptr %5, align 4
  %16 = load i32, ptr %6, align 4
  %17 = load i32, ptr %7, align 4
  %18 = call zeroext i1 @bad_cache_params(i32 noundef %15, i32 noundef %16, i32 noundef %17)
  br i1 %18, label %19, label %20

19:                                               ; preds = %3
  store ptr null, ptr %4, align 8
  store i32 1, ptr %10, align 4
  br label %70

20:                                               ; preds = %3
  call void @llvm.lifetime.start.p0(i64 8, ptr %11) #10
  %21 = load i32, ptr @cores, align 4
  %22 = sext i32 %21 to i64
  store i64 %22, ptr %11, align 8
  call void @llvm.lifetime.start.p0(i64 8, ptr %12) #10
  store i64 8, ptr %12, align 8
  call void @llvm.lifetime.start.p0(i64 8, ptr %13) #10
  store ptr null, ptr %13, align 8, !annotation !3
  %23 = load i64, ptr %12, align 8
  %24 = icmp eq i64 %23, 1
  br i1 %24, label %25, label %28

25:                                               ; preds = %20
  %26 = load i64, ptr %11, align 8
  %27 = call noalias ptr @g_malloc(i64 noundef %26) #11
  store ptr %27, ptr %13, align 8
  br label %49

28:                                               ; preds = %20
  %29 = load i64, ptr %11, align 8
  %30 = call i1 @llvm.is.constant.i64(i64 %29)
  br i1 %30, label %31, label %44

31:                                               ; preds = %28
  %32 = load i64, ptr %12, align 8
  %33 = icmp eq i64 %32, 0
  br i1 %33, label %39, label %34

34:                                               ; preds = %31
  %35 = load i64, ptr %11, align 8
  %36 = load i64, ptr %12, align 8
  %37 = udiv i64 -1, %36
  %38 = icmp ule i64 %35, %37
  br i1 %38, label %39, label %44

39:                                               ; preds = %34, %31
  %40 = load i64, ptr %11, align 8
  %41 = load i64, ptr %12, align 8
  %42 = mul i64 %40, %41
  %43 = call noalias ptr @g_malloc(i64 noundef %42) #11
  store ptr %43, ptr %13, align 8
  br label %48

44:                                               ; preds = %34, %28
  %45 = load i64, ptr %11, align 8
  %46 = load i64, ptr %12, align 8
  %47 = call noalias ptr @g_malloc_n(i64 noundef %45, i64 noundef %46) #12
  store ptr %47, ptr %13, align 8
  br label %48

48:                                               ; preds = %44, %39
  br label %49

49:                                               ; preds = %48, %25
  %50 = load ptr, ptr %13, align 8
  store ptr %50, ptr %14, align 8
  call void @llvm.lifetime.end.p0(i64 8, ptr %13) #10
  call void @llvm.lifetime.end.p0(i64 8, ptr %12) #10
  call void @llvm.lifetime.end.p0(i64 8, ptr %11) #10
  %51 = load ptr, ptr %14, align 8
  store ptr %51, ptr %8, align 8
  store i32 0, ptr %9, align 4
  br label %52

52:                                               ; preds = %65, %49
  %53 = load i32, ptr %9, align 4
  %54 = load i32, ptr @cores, align 4
  %55 = icmp slt i32 %53, %54
  br i1 %55, label %56, label %68

56:                                               ; preds = %52
  %57 = load i32, ptr %5, align 4
  %58 = load i32, ptr %6, align 4
  %59 = load i32, ptr %7, align 4
  %60 = call ptr @cache_init(i32 noundef %57, i32 noundef %58, i32 noundef %59)
  %61 = load ptr, ptr %8, align 8
  %62 = load i32, ptr %9, align 4
  %63 = sext i32 %62 to i64
  %64 = getelementptr inbounds ptr, ptr %61, i64 %63
  store ptr %60, ptr %64, align 8
  br label %65

65:                                               ; preds = %56
  %66 = load i32, ptr %9, align 4
  %67 = add i32 %66, 1
  store i32 %67, ptr %9, align 4
  br label %52, !llvm.loop !8

68:                                               ; preds = %52
  %69 = load ptr, ptr %8, align 8
  store ptr %69, ptr %4, align 8
  store i32 1, ptr %10, align 4
  br label %70

70:                                               ; preds = %68, %19
  call void @llvm.lifetime.end.p0(i64 4, ptr %9) #10
  call void @llvm.lifetime.end.p0(i64 8, ptr %8) #10
  %71 = load ptr, ptr %4, align 8
  ret ptr %71
}