; Function Attrs: nounwind sspstrong uwtable
define internal fastcc ptr @caches_init(i32 noundef %0, i32 noundef %1, i32 noundef %2) unnamed_addr #0 {
  %4 = srem i32 %2, %0
  %.not.i = icmp eq i32 %4, 0
  br i1 %.not.i, label %bad_cache_params.exit, label %bad_cache_params.exit.thread

bad_cache_params.exit:                            ; preds = %3
  %5 = mul i32 %1, %0
  %6 = srem i32 %2, %5
  %7 = sdiv i32 %2, %5
  %.not = icmp eq i32 %6, 0
  br i1 %.not, label %8, label %bad_cache_params.exit.thread

8:                                                ; preds = %bad_cache_params.exit
  %9 = load i32, ptr @cores, align 4
  %10 = sext i32 %9 to i64
  %11 = tail call noalias ptr @g_malloc_n(i64 noundef %10, i64 noundef 8) #16
  %12 = load i32, ptr @cores, align 4
  %13 = icmp sgt i32 %12, 0
  br i1 %13, label %bad_cache_params.exit.i.preheader, label %bad_cache_params.exit.thread

bad_cache_params.exit.i.preheader:                ; preds = %8
  %14 = tail call range(i32 1, 33) i32 @llvm.ctpop.i32(i32 %0)
  %15 = icmp samesign ugt i32 %14, 1
  %.not11.i.i = icmp ult i32 %0, 2
  %16 = sext i32 %1 to i64
  %17 = add i32 %0, -1
  br label %bad_cache_params.exit.i

bad_cache_params.exit.i:                          ; preds = %bad_cache_params.exit.i.preheader, %cache_init.exit
  %indvars.iv = phi i64 [ 0, %bad_cache_params.exit.i.preheader ], [ %indvars.iv.next, %cache_init.exit ]
  %18 = tail call noalias dereferenceable_or_null(56) ptr @g_malloc(i64 noundef 56) #17
  %19 = getelementptr inbounds nuw i8, ptr %18, i64 16
  store i32 %1, ptr %19, align 8
  %20 = getelementptr inbounds nuw i8, ptr %18, i64 12
  store i32 %2, ptr %20, align 4
  %21 = getelementptr inbounds nuw i8, ptr %18, i64 8
  store i32 %7, ptr %21, align 8
  %22 = sext i32 %7 to i64
  %23 = tail call noalias ptr @g_malloc_n(i64 noundef %22, i64 noundef 32) #16
  store ptr %23, ptr %18, align 8
  br i1 %15, label %24, label %.preheader.i.i, !prof !7

.preheader.i.i:                                   ; preds = %bad_cache_params.exit.i
  br i1 %.not11.i.i, label %pow_of_two.exit.i, label %.lr.ph.i.i

24:                                               ; preds = %bad_cache_params.exit.i
  tail call void @g_assertion_message_expr(ptr noundef null, ptr noundef nonnull @.str.24, i32 noundef 118, ptr noundef nonnull @__func__.pow_of_two, ptr noundef nonnull @.str.26) #14
  unreachable

.lr.ph.i.i:                                       ; preds = %.preheader.i.i, %.lr.ph.i.i
  %.013.i.i = phi i32 [ %26, %.lr.ph.i.i ], [ 0, %.preheader.i.i ]
  %.0712.i.i = phi i32 [ %25, %.lr.ph.i.i ], [ %0, %.preheader.i.i ]
  %25 = sdiv i32 %.0712.i.i, 2
  %26 = add i32 %.013.i.i, 1
  %.07.off.i.i = add nsw i32 %25, 1
  %.not.i76.i = icmp ult i32 %.07.off.i.i, 3
  br i1 %.not.i76.i, label %pow_of_two.exit.i, label %.lr.ph.i.i, !llvm.loop !8

pow_of_two.exit.i:                                ; preds = %.lr.ph.i.i, %.preheader.i.i
  %27 = phi i32 [ 0, %.preheader.i.i ], [ %26, %.lr.ph.i.i ]
  %28 = getelementptr inbounds nuw i8, ptr %18, i64 20
  store i32 %27, ptr %28, align 4
  %29 = getelementptr inbounds nuw i8, ptr %18, i64 40
  %30 = icmp sgt i32 %7, 0
  tail call void @llvm.memset.p0.i64(ptr noundef nonnull align 8 dereferenceable(16) %29, i8 0, i64 16, i1 false)
  br i1 %30, label %.lr.ph.i, label %._crit_edge.i

.lr.ph.i:                                         ; preds = %pow_of_two.exit.i, %.lr.ph.i
  %indvars.iv.i = phi i64 [ %indvars.iv.next.i, %.lr.ph.i ], [ 0, %pow_of_two.exit.i ]
  %31 = tail call noalias ptr @g_malloc0_n(i64 noundef %16, i64 noundef 16) #16
  %32 = getelementptr inbounds nuw %struct.CacheSet, ptr %23, i64 %indvars.iv.i
  store ptr %31, ptr %32, align 8
  %indvars.iv.next.i = add nuw nsw i64 %indvars.iv.i, 1
  %exitcond.not = icmp eq i64 %indvars.iv.next.i, %22
  br i1 %exitcond.not, label %._crit_edge.i, label %.lr.ph.i, !llvm.loop !9

._crit_edge.i:                                    ; preds = %.lr.ph.i, %pow_of_two.exit.i
  %33 = add i32 %7, -1
  %34 = shl i32 %33, %27
  %35 = sext i32 %34 to i64
  %36 = getelementptr inbounds nuw i8, ptr %18, i64 24
  store i64 %35, ptr %36, align 8
  %37 = or i32 %34, %17
  %38 = xor i32 %37, -1
  %39 = sext i32 %38 to i64
  %40 = getelementptr inbounds nuw i8, ptr %18, i64 32
  store i64 %39, ptr %40, align 8
  %41 = load ptr, ptr @metadata_init, align 8
  %.not.i25 = icmp eq ptr %41, null
  br i1 %.not.i25, label %cache_init.exit, label %42

42:                                               ; preds = %._crit_edge.i
  tail call void %41(ptr noundef nonnull %18) #12
  br label %cache_init.exit

cache_init.exit:                                  ; preds = %._crit_edge.i, %42
  %43 = getelementptr inbounds nuw ptr, ptr %11, i64 %indvars.iv
  store ptr %18, ptr %43, align 8
  %indvars.iv.next = add nuw nsw i64 %indvars.iv, 1
  %44 = load i32, ptr @cores, align 4
  %45 = sext i32 %44 to i64
  %46 = icmp slt i64 %indvars.iv.next, %45
  br i1 %46, label %bad_cache_params.exit.i, label %bad_cache_params.exit.thread, !llvm.loop !10

bad_cache_params.exit.thread:                     ; preds = %cache_init.exit, %8, %3, %bad_cache_params.exit
  %.0 = phi ptr [ null, %bad_cache_params.exit ], [ null, %3 ], [ %11, %8 ], [ %11, %cache_init.exit ]
  ret ptr %.0
}